Certificate:
    Data:
        Version: 3 (0x2)
        Serial Number: 4 (0x4)
    Signature Algorithm: sha256WithRSAEncryption
        Issuer: C=UK, ST=Hampshire, L=Southampton, O=logic-ex, OU=none, CN=logic-ex CA/name=EasyRSA/emailAddress=stephen@butterfill.com
        Validity
            Not Before: Nov 21 13:24:48 2015 GMT
            Not After : Nov 18 13:24:48 2025 GMT
        Subject: C=UK, ST=Hampshire, L=Southampton, O=logic-ex, OU=none, CN=logic-w-dallas/name=EasyRSA/emailAddress=stephen@butterfill.com
        Subject Public Key Info:
            Public Key Algorithm: rsaEncryption
                Public-Key: (2048 bit)
                Modulus:
                    00:b6:88:ef:96:24:68:ce:f5:6a:8e:44:0b:d4:04:
                    a0:47:09:00:82:06:0b:26:5e:24:ef:33:ae:e1:cc:
                    de:cf:f2:e7:42:84:58:80:da:98:ec:e9:b2:ba:d7:
                    69:f2:3c:86:65:6a:1e:7a:9c:ef:96:a4:a1:23:d6:
                    d9:33:bc:d3:69:c3:4e:ac:61:45:d8:29:07:4a:b2:
                    36:2c:67:2f:be:4f:a7:4e:af:40:9d:bb:34:2e:2e:
                    e6:4d:c6:4b:55:29:d3:71:dc:c9:d6:da:2b:db:6a:
                    48:12:19:36:36:33:18:28:bb:92:97:86:a2:c8:dc:
                    a8:5d:fe:64:9a:61:5c:32:70:10:2a:26:87:cf:fa:
                    67:81:1b:57:43:fa:89:d4:76:3e:53:73:67:cd:49:
                    ba:0a:d3:45:69:94:fe:30:9b:bb:c8:8c:16:8c:4e:
                    5a:b2:9b:9d:fa:2f:3c:9d:e7:0b:ce:7b:f1:1e:51:
                    8a:f3:50:22:8c:61:e5:6f:51:d9:7f:a4:e2:d4:82:
                    3e:13:92:5d:9a:78:09:88:37:23:b0:98:57:f4:f9:
                    75:d7:ef:0e:49:9a:1d:fa:c6:87:c3:e5:7c:0c:6d:
                    f8:bd:11:13:41:19:81:c2:ae:45:22:97:c9:1c:e3:
                    bd:51:7e:30:91:96:23:e6:b2:84:a3:54:25:5c:2c:
                    fa:4b
                Exponent: 65537 (0x10001)
        X509v3 extensions:
            X509v3 Basic Constraints: 
                CA:FALSE
            Netscape Comment: 
                Easy-RSA Generated Certificate
            X509v3 Subject Key Identifier: 
                26:C1:75:18:A2:C1:33:87:13:41:F3:D5:46:DF:35:5C:07:87:D3:7B
            X509v3 Authority Key Identifier: 
                keyid:AF:AE:3A:6E:08:20:81:98:19:31:02:05:01:8D:1B:B7:D7:21:39:01
                DirName:/C=UK/ST=Hampshire/L=Southampton/O=logic-ex/OU=none/CN=logic-ex CA/name=EasyRSA/emailAddress=stephen@butterfill.com
                serial:B2:91:60:12:6D:BA:E7:A8

            X509v3 Extended Key Usage: 
                TLS Web Client Authentication
            X509v3 Key Usage: 
                Digital Signature
            X509v3 Subject Alternative Name: 
                DNS:logic-w-dallas
    Signature Algorithm: sha256WithRSAEncryption
         bc:d1:1c:93:bc:fa:41:c2:04:c2:82:74:62:86:ec:49:cd:62:
         d6:37:60:60:21:db:d0:90:58:91:73:0f:86:58:91:f5:96:ec:
         70:d6:9f:49:83:bf:71:70:71:dc:f8:4c:2c:aa:fb:09:dc:69:
         a8:47:fb:1c:45:d7:f4:ee:fb:c1:3a:c0:9b:87:a3:7f:f4:80:
         d9:59:71:52:40:f3:4c:f9:f5:f0:48:af:3d:79:bc:9e:62:0a:
         2a:70:d2:d3:d7:97:04:5b:a0:62:6f:4b:d8:81:2b:70:96:0e:
         62:89:64:63:bb:24:49:9b:90:75:f9:98:8d:06:c0:98:5f:68:
         2b:68:cf:87:61:15:55:52:d9:03:e1:38:88:db:bf:f0:a9:89:
         bc:d8:91:ff:ea:c8:a0:de:67:b1:2e:32:c1:3c:e0:83:d4:f6:
         41:d5:d3:ed:3f:85:db:3d:82:90:9d:a0:0d:4d:b2:f0:25:88:
         df:ff:12:f9:87:30:12:0b:d4:49:e0:f5:8f:90:eb:5e:ba:e4:
         80:8c:92:e6:06:b3:33:a2:cb:90:b5:08:35:ab:90:8d:4d:89:
         c5:96:07:6b:65:92:38:85:30:2e:13:5a:17:a8:a7:8b:e4:f8:
         01:21:45:9d:2c:94:56:1f:ce:b4:95:10:bd:f3:76:78:23:37:
         b1:f0:24:4d
-----BEGIN CERTIFICATE-----
MIIFTDCCBDSgAwIBAgIBBDANBgkqhkiG9w0BAQsFADCBqDELMAkGA1UEBhMCVUsx
EjAQBgNVBAgTCUhhbXBzaGlyZTEUMBIGA1UEBxMLU291dGhhbXB0b24xETAPBgNV
BAoTCGxvZ2ljLWV4MQ0wCwYDVQQLEwRub25lMRQwEgYDVQQDEwtsb2dpYy1leCBD
QTEQMA4GA1UEKRMHRWFzeVJTQTElMCMGCSqGSIb3DQEJARYWc3RlcGhlbkBidXR0
ZXJmaWxsLmNvbTAeFw0xNTExMjExMzI0NDhaFw0yNTExMTgxMzI0NDhaMIGrMQsw
CQYDVQQGEwJVSzESMBAGA1UECBMJSGFtcHNoaXJlMRQwEgYDVQQHEwtTb3V0aGFt
cHRvbjERMA8GA1UEChMIbG9naWMtZXgxDTALBgNVBAsTBG5vbmUxFzAVBgNVBAMT
DmxvZ2ljLXctZGFsbGFzMRAwDgYDVQQpEwdFYXN5UlNBMSUwIwYJKoZIhvcNAQkB
FhZzdGVwaGVuQGJ1dHRlcmZpbGwuY29tMIIBIjANBgkqhkiG9w0BAQEFAAOCAQ8A
MIIBCgKCAQEAtojvliRozvVqjkQL1ASgRwkAggYLJl4k7zOu4czez/LnQoRYgNqY
7Omyutdp8jyGZWoeepzvlqShI9bZM7zTacNOrGFF2CkHSrI2LGcvvk+nTq9Anbs0
Li7mTcZLVSnTcdzJ1tor22pIEhk2NjMYKLuSl4aiyNyoXf5kmmFcMnAQKiaHz/pn
gRtXQ/qJ1HY+U3NnzUm6CtNFaZT+MJu7yIwWjE5aspud+i88necLznvxHlGK81Ai
jGHlb1HZf6Ti1II+E5JdmngJiDcjsJhX9Pl11+8OSZod+saHw+V8DG34vRETQRmB
wq5FIpfJHOO9UX4wkZYj5rKEo1QlXCz6SwIDAQABo4IBejCCAXYwCQYDVR0TBAIw
ADAtBglghkgBhvhCAQ0EIBYeRWFzeS1SU0EgR2VuZXJhdGVkIENlcnRpZmljYXRl
MB0GA1UdDgQWBBQmwXUYosEzhxNB89VG3zVcB4fTezCB3QYDVR0jBIHVMIHSgBSv
rjpuCCCBmBkxAgUBjRu31yE5AaGBrqSBqzCBqDELMAkGA1UEBhMCVUsxEjAQBgNV
BAgTCUhhbXBzaGlyZTEUMBIGA1UEBxMLU291dGhhbXB0b24xETAPBgNVBAoTCGxv
Z2ljLWV4MQ0wCwYDVQQLEwRub25lMRQwEgYDVQQDEwtsb2dpYy1leCBDQTEQMA4G
A1UEKRMHRWFzeVJTQTElMCMGCSqGSIb3DQEJARYWc3RlcGhlbkBidXR0ZXJmaWxs
LmNvbYIJALKRYBJtuueoMBMGA1UdJQQMMAoGCCsGAQUFBwMCMAsGA1UdDwQEAwIH
gDAZBgNVHREEEjAQgg5sb2dpYy13LWRhbGxhczANBgkqhkiG9w0BAQsFAAOCAQEA
vNEck7z6QcIEwoJ0YobsSc1i1jdgYCHb0JBYkXMPhliR9ZbscNafSYO/cXBx3PhM
LKr7CdxpqEf7HEXX9O77wTrAm4ejf/SA2VlxUkDzTPn18EivPXm8nmIKKnDS09eX
BFugYm9L2IErcJYOYolkY7skSZuQdfmYjQbAmF9oK2jPh2EVVVLZA+E4iNu/8KmJ
vNiR/+rIoN5nsS4ywTzgg9T2QdXT7T+F2z2CkJ2gDU2y8CWI3/8S+YcwEgvUSeD1
j5DrXrrkgIyS5gazM6LLkLUINauQjU2JxZYHa2WSOIUwLhNaF6ini+T4ASFFnSyU
Vh/OtJUQvfN2eCM3sfAkTQ==
-----END CERTIFICATE-----
