Certificate:
    Data:
        Version: 3 (0x2)
        Serial Number: 5 (0x5)
    Signature Algorithm: sha256WithRSAEncryption
        Issuer: C=UK, ST=Hampshire, L=Southampton, O=logic-ex, OU=none, CN=logic-ex CA/name=EasyRSA/emailAddress=stephen@butterfill.com
        Validity
            Not Before: Nov 21 13:25:00 2015 GMT
            Not After : Nov 18 13:25:00 2025 GMT
        Subject: C=UK, ST=Hampshire, L=Southampton, O=logic-ex, OU=none, CN=logic-w-seattle/name=EasyRSA/emailAddress=stephen@butterfill.com
        Subject Public Key Info:
            Public Key Algorithm: rsaEncryption
                Public-Key: (2048 bit)
                Modulus:
                    00:c5:9c:c9:f7:b0:6f:c8:ce:15:23:c5:6a:3e:ce:
                    fc:9e:49:a0:23:a5:1f:c2:95:a4:72:95:e9:64:39:
                    19:d1:95:87:a9:59:fe:a6:84:67:6d:fc:07:c5:3f:
                    c3:9b:96:73:99:b4:ed:c3:14:ed:f9:2d:e5:24:b8:
                    b4:11:53:54:2d:f1:2d:7d:99:ce:46:15:de:7a:0e:
                    22:c8:98:c5:eb:76:fb:73:27:ca:9d:2a:af:ef:c2:
                    4a:b5:4a:66:59:fd:09:a6:49:a6:04:1d:eb:67:fc:
                    4e:08:f0:4f:32:11:c6:6c:b4:1c:2d:db:f8:aa:4b:
                    3e:f2:dd:95:3b:40:c8:86:97:e7:80:cf:e8:3c:11:
                    07:f3:20:5c:e0:a4:dc:2d:17:54:82:de:a7:2b:cb:
                    41:22:d1:df:f7:8e:81:25:cd:92:89:1b:f9:e2:9a:
                    d6:7a:07:44:9a:af:96:db:d6:8c:32:7a:d6:bb:51:
                    02:de:7a:79:53:a2:14:28:e7:2c:7b:00:e4:6f:31:
                    4d:9d:3c:cd:6d:2f:8a:04:e8:f2:38:7a:f3:5a:66:
                    b1:f3:78:a2:9f:95:ca:84:a8:10:92:4b:7d:83:cc:
                    08:56:4f:b4:6a:c0:2d:a5:17:b7:7e:b3:b1:5a:88:
                    7e:cf:1c:ce:6c:ef:46:63:9f:ad:28:be:14:e6:5d:
                    b1:af
                Exponent: 65537 (0x10001)
        X509v3 extensions:
            X509v3 Basic Constraints: 
                CA:FALSE
            Netscape Comment: 
                Easy-RSA Generated Certificate
            X509v3 Subject Key Identifier: 
                EF:9A:5A:D6:F8:20:0F:27:5C:67:06:83:79:6D:91:B7:F0:92:5D:FE
            X509v3 Authority Key Identifier: 
                keyid:AF:AE:3A:6E:08:20:81:98:19:31:02:05:01:8D:1B:B7:D7:21:39:01
                DirName:/C=UK/ST=Hampshire/L=Southampton/O=logic-ex/OU=none/CN=logic-ex CA/name=EasyRSA/emailAddress=stephen@butterfill.com
                serial:B2:91:60:12:6D:BA:E7:A8

            X509v3 Extended Key Usage: 
                TLS Web Client Authentication
            X509v3 Key Usage: 
                Digital Signature
            X509v3 Subject Alternative Name: 
                DNS:logic-w-seattle
    Signature Algorithm: sha256WithRSAEncryption
         7a:98:8c:7e:ac:22:54:6b:35:6f:c4:bb:ac:1b:dd:5d:45:72:
         48:fd:8f:f7:46:ea:58:e1:5a:93:9e:4b:0f:7a:8a:d1:a8:ec:
         d0:a0:de:61:e3:4e:9d:03:5e:77:88:50:3a:5f:10:a9:0f:76:
         73:6c:c3:0f:99:84:cd:00:f9:37:2a:5b:ea:de:37:28:16:69:
         13:57:f9:e9:d4:46:aa:32:03:13:fe:87:c3:6b:39:ce:c9:cc:
         62:15:e4:8c:b9:1e:f9:1a:a8:e0:c8:89:c5:04:04:57:55:a9:
         c1:da:db:99:86:2d:72:85:09:09:6c:48:91:36:f6:53:26:6a:
         bb:1c:58:e8:b9:ab:84:31:96:5c:61:de:9a:86:9f:1e:5e:15:
         8e:3e:b8:40:28:cc:4a:a2:89:7c:16:4e:f9:10:e9:eb:1d:1b:
         c8:37:e4:98:a7:5d:a4:42:ab:25:eb:67:c4:47:56:2b:29:3c:
         d9:18:d4:2c:75:26:9a:56:22:ca:df:02:65:67:82:53:71:0c:
         61:79:f6:63:7f:f4:1c:be:30:70:70:c0:90:ef:46:87:36:83:
         d1:eb:7e:3c:e2:60:0a:11:2b:5e:38:8a:d7:9a:d7:65:3d:92:
         75:f7:23:93:4d:f6:56:bc:7b:1e:f1:eb:64:24:a9:81:a1:32:
         ba:e7:ce:b0
-----BEGIN CERTIFICATE-----
MIIFTjCCBDagAwIBAgIBBTANBgkqhkiG9w0BAQsFADCBqDELMAkGA1UEBhMCVUsx
EjAQBgNVBAgTCUhhbXBzaGlyZTEUMBIGA1UEBxMLU291dGhhbXB0b24xETAPBgNV
BAoTCGxvZ2ljLWV4MQ0wCwYDVQQLEwRub25lMRQwEgYDVQQDEwtsb2dpYy1leCBD
QTEQMA4GA1UEKRMHRWFzeVJTQTElMCMGCSqGSIb3DQEJARYWc3RlcGhlbkBidXR0
ZXJmaWxsLmNvbTAeFw0xNTExMjExMzI1MDBaFw0yNTExMTgxMzI1MDBaMIGsMQsw
CQYDVQQGEwJVSzESMBAGA1UECBMJSGFtcHNoaXJlMRQwEgYDVQQHEwtTb3V0aGFt
cHRvbjERMA8GA1UEChMIbG9naWMtZXgxDTALBgNVBAsTBG5vbmUxGDAWBgNVBAMT
D2xvZ2ljLXctc2VhdHRsZTEQMA4GA1UEKRMHRWFzeVJTQTElMCMGCSqGSIb3DQEJ
ARYWc3RlcGhlbkBidXR0ZXJmaWxsLmNvbTCCASIwDQYJKoZIhvcNAQEBBQADggEP
ADCCAQoCggEBAMWcyfewb8jOFSPFaj7O/J5JoCOlH8KVpHKV6WQ5GdGVh6lZ/qaE
Z238B8U/w5uWc5m07cMU7fkt5SS4tBFTVC3xLX2ZzkYV3noOIsiYxet2+3Mnyp0q
r+/CSrVKZln9CaZJpgQd62f8TgjwTzIRxmy0HC3b+KpLPvLdlTtAyIaX54DP6DwR
B/MgXOCk3C0XVILepyvLQSLR3/eOgSXNkokb+eKa1noHRJqvltvWjDJ61rtRAt56
eVOiFCjnLHsA5G8xTZ08zW0vigTo8jh681pmsfN4op+VyoSoEJJLfYPMCFZPtGrA
LaUXt36zsVqIfs8czmzvRmOfrSi+FOZdsa8CAwEAAaOCAXswggF3MAkGA1UdEwQC
MAAwLQYJYIZIAYb4QgENBCAWHkVhc3ktUlNBIEdlbmVyYXRlZCBDZXJ0aWZpY2F0
ZTAdBgNVHQ4EFgQU75pa1vggDydcZwaDeW2Rt/CSXf4wgd0GA1UdIwSB1TCB0oAU
r646bggggZgZMQIFAY0bt9chOQGhga6kgaswgagxCzAJBgNVBAYTAlVLMRIwEAYD
VQQIEwlIYW1wc2hpcmUxFDASBgNVBAcTC1NvdXRoYW1wdG9uMREwDwYDVQQKEwhs
b2dpYy1leDENMAsGA1UECxMEbm9uZTEUMBIGA1UEAxMLbG9naWMtZXggQ0ExEDAO
BgNVBCkTB0Vhc3lSU0ExJTAjBgkqhkiG9w0BCQEWFnN0ZXBoZW5AYnV0dGVyZmls
bC5jb22CCQCykWASbbrnqDATBgNVHSUEDDAKBggrBgEFBQcDAjALBgNVHQ8EBAMC
B4AwGgYDVR0RBBMwEYIPbG9naWMtdy1zZWF0dGxlMA0GCSqGSIb3DQEBCwUAA4IB
AQB6mIx+rCJUazVvxLusG91dRXJI/Y/3RupY4VqTnksPeorRqOzQoN5h406dA153
iFA6XxCpD3ZzbMMPmYTNAPk3Klvq3jcoFmkTV/np1EaqMgMT/ofDaznOycxiFeSM
uR75GqjgyInFBARXVanB2tuZhi1yhQkJbEiRNvZTJmq7HFjouauEMZZcYd6ahp8e
XhWOPrhAKMxKool8Fk75EOnrHRvIN+SYp12kQqsl62fER1YrKTzZGNQsdSaaViLK
3wJlZ4JTcQxhefZjf/QcvjBwcMCQ70aHNoPR63484mAKESteOIrXmtdlPZJ19yOT
TfZWvHse8etkJKmBoTK6586w
-----END CERTIFICATE-----
