Certificate:
    Data:
        Version: 3 (0x2)
        Serial Number: 3 (0x3)
    Signature Algorithm: sha256WithRSAEncryption
        Issuer: C=UK, ST=Hampshire, L=Southampton, O=logic-ex, OU=none, CN=logic-ex CA/name=EasyRSA/emailAddress=stephen@butterfill.com
        Validity
            Not Before: Nov 21 13:24:28 2015 GMT
            Not After : Nov 18 13:24:28 2025 GMT
        Subject: C=UK, ST=Hampshire, L=Southampton, O=logic-ex, OU=none, CN=logic-w-nyc2/name=EasyRSA/emailAddress=stephen@butterfill.com
        Subject Public Key Info:
            Public Key Algorithm: rsaEncryption
                Public-Key: (2048 bit)
                Modulus:
                    00:c2:0d:d1:34:ec:c8:7c:27:54:4e:c5:5c:3a:18:
                    5f:d4:7e:e1:09:87:07:4c:3b:b2:8d:9d:aa:cb:d8:
                    15:4c:1a:35:5b:b5:f2:ed:43:97:e0:b8:e1:89:bc:
                    de:c5:8d:3e:82:97:13:c7:c8:44:ad:b1:d6:00:31:
                    9b:7f:3b:25:12:ff:d5:dc:af:08:0b:1d:4a:4a:7a:
                    fc:99:f5:fa:aa:cf:85:db:6b:39:0c:09:bd:41:1c:
                    14:d1:88:54:a6:e3:e6:0a:ef:06:2d:97:9f:7a:34:
                    6a:9c:b2:80:4d:f5:cc:3f:5c:70:48:f9:07:17:76:
                    d1:50:d2:36:b2:9e:5b:10:c9:3f:64:dc:db:17:b3:
                    49:00:d9:be:e1:63:8d:88:96:84:73:c1:2b:6c:02:
                    ea:90:8c:ad:45:46:fd:90:98:5f:0d:0f:7a:2b:46:
                    c6:08:c4:ff:0e:ef:3b:38:ea:b0:92:53:1e:7e:20:
                    eb:35:af:a4:eb:92:a2:14:2b:9a:2b:2a:5f:22:dc:
                    f5:c8:da:da:c3:7f:a3:84:5e:01:f1:fd:d4:bd:88:
                    03:8c:62:cf:62:d8:5d:4b:b7:64:a0:3b:40:03:6f:
                    d1:4a:c3:20:c8:18:29:fd:be:20:b2:0b:60:e2:9f:
                    56:28:d1:2f:a8:3a:9d:27:86:b7:d1:23:f9:ec:d0:
                    25:4b
                Exponent: 65537 (0x10001)
        X509v3 extensions:
            X509v3 Basic Constraints: 
                CA:FALSE
            Netscape Comment: 
                Easy-RSA Generated Certificate
            X509v3 Subject Key Identifier: 
                32:E1:57:1D:FE:E4:60:BB:32:97:5A:55:E5:43:DB:AA:C6:6A:8E:89
            X509v3 Authority Key Identifier: 
                keyid:AF:AE:3A:6E:08:20:81:98:19:31:02:05:01:8D:1B:B7:D7:21:39:01
                DirName:/C=UK/ST=Hampshire/L=Southampton/O=logic-ex/OU=none/CN=logic-ex CA/name=EasyRSA/emailAddress=stephen@butterfill.com
                serial:B2:91:60:12:6D:BA:E7:A8

            X509v3 Extended Key Usage: 
                TLS Web Client Authentication
            X509v3 Key Usage: 
                Digital Signature
            X509v3 Subject Alternative Name: 
                DNS:logic-w-nyc2
    Signature Algorithm: sha256WithRSAEncryption
         0a:62:a6:68:ff:6e:9d:4b:4a:3a:f0:c6:11:4a:fc:34:e9:c9:
         c7:82:2a:37:89:fe:62:6c:23:f2:fb:11:52:a7:f1:96:4f:25:
         d7:a1:e9:01:a6:e1:74:c4:c6:a5:d5:fd:ec:e8:cb:5a:ad:ed:
         72:34:20:2b:51:ee:cd:a4:f1:a7:7a:68:bc:d9:de:ce:64:c9:
         72:f7:d4:78:41:c5:ca:9e:8c:d0:f2:89:5b:72:2b:d3:98:0d:
         4b:df:ea:d0:d9:81:27:1b:45:b4:56:f0:64:dd:d8:0f:c3:30:
         09:f7:ff:de:88:3a:bd:3b:17:61:f2:ce:f0:6b:5c:77:15:02:
         60:8c:94:1c:be:2e:c3:a5:cf:46:ec:4e:64:27:b0:a2:7c:f2:
         cb:0a:a4:57:6e:ac:b7:4f:59:fa:97:20:1b:76:d9:d2:c9:d9:
         62:6a:ff:27:ec:2e:83:f3:2a:d6:e1:05:1b:7f:02:08:8c:55:
         aa:c6:b5:49:de:1b:c8:de:fd:ad:de:80:14:0d:08:56:48:09:
         50:57:08:d3:b2:7e:22:65:7a:21:b2:e3:1a:79:14:cf:b3:a7:
         ce:64:54:c3:14:5c:fa:31:14:55:77:6d:2b:e7:79:b4:4c:1f:
         52:9a:67:e1:af:ba:f3:d9:ed:97:2f:ed:6c:d4:22:2c:0b:d0:
         fc:25:26:93
-----BEGIN CERTIFICATE-----
MIIFSDCCBDCgAwIBAgIBAzANBgkqhkiG9w0BAQsFADCBqDELMAkGA1UEBhMCVUsx
EjAQBgNVBAgTCUhhbXBzaGlyZTEUMBIGA1UEBxMLU291dGhhbXB0b24xETAPBgNV
BAoTCGxvZ2ljLWV4MQ0wCwYDVQQLEwRub25lMRQwEgYDVQQDEwtsb2dpYy1leCBD
QTEQMA4GA1UEKRMHRWFzeVJTQTElMCMGCSqGSIb3DQEJARYWc3RlcGhlbkBidXR0
ZXJmaWxsLmNvbTAeFw0xNTExMjExMzI0MjhaFw0yNTExMTgxMzI0MjhaMIGpMQsw
CQYDVQQGEwJVSzESMBAGA1UECBMJSGFtcHNoaXJlMRQwEgYDVQQHEwtTb3V0aGFt
cHRvbjERMA8GA1UEChMIbG9naWMtZXgxDTALBgNVBAsTBG5vbmUxFTATBgNVBAMT
DGxvZ2ljLXctbnljMjEQMA4GA1UEKRMHRWFzeVJTQTElMCMGCSqGSIb3DQEJARYW
c3RlcGhlbkBidXR0ZXJmaWxsLmNvbTCCASIwDQYJKoZIhvcNAQEBBQADggEPADCC
AQoCggEBAMIN0TTsyHwnVE7FXDoYX9R+4QmHB0w7so2dqsvYFUwaNVu18u1Dl+C4
4Ym83sWNPoKXE8fIRK2x1gAxm387JRL/1dyvCAsdSkp6/Jn1+qrPhdtrOQwJvUEc
FNGIVKbj5grvBi2Xn3o0apyygE31zD9ccEj5Bxd20VDSNrKeWxDJP2Tc2xezSQDZ
vuFjjYiWhHPBK2wC6pCMrUVG/ZCYXw0PeitGxgjE/w7vOzjqsJJTHn4g6zWvpOuS
ohQrmisqXyLc9cja2sN/o4ReAfH91L2IA4xiz2LYXUu3ZKA7QANv0UrDIMgYKf2+
ILILYOKfVijRL6g6nSeGt9Ej+ezQJUsCAwEAAaOCAXgwggF0MAkGA1UdEwQCMAAw
LQYJYIZIAYb4QgENBCAWHkVhc3ktUlNBIEdlbmVyYXRlZCBDZXJ0aWZpY2F0ZTAd
BgNVHQ4EFgQUMuFXHf7kYLsyl1pV5UPbqsZqjokwgd0GA1UdIwSB1TCB0oAUr646
bggggZgZMQIFAY0bt9chOQGhga6kgaswgagxCzAJBgNVBAYTAlVLMRIwEAYDVQQI
EwlIYW1wc2hpcmUxFDASBgNVBAcTC1NvdXRoYW1wdG9uMREwDwYDVQQKEwhsb2dp
Yy1leDENMAsGA1UECxMEbm9uZTEUMBIGA1UEAxMLbG9naWMtZXggQ0ExEDAOBgNV
BCkTB0Vhc3lSU0ExJTAjBgkqhkiG9w0BCQEWFnN0ZXBoZW5AYnV0dGVyZmlsbC5j
b22CCQCykWASbbrnqDATBgNVHSUEDDAKBggrBgEFBQcDAjALBgNVHQ8EBAMCB4Aw
FwYDVR0RBBAwDoIMbG9naWMtdy1ueWMyMA0GCSqGSIb3DQEBCwUAA4IBAQAKYqZo
/26dS0o68MYRSvw06cnHgio3if5ibCPy+xFSp/GWTyXXoekBpuF0xMal1f3s6Mta
re1yNCArUe7NpPGnemi82d7OZMly99R4QcXKnozQ8olbcivTmA1L3+rQ2YEnG0W0
VvBk3dgPwzAJ9//eiDq9Oxdh8s7wa1x3FQJgjJQcvi7Dpc9G7E5kJ7CifPLLCqRX
bqy3T1n6lyAbdtnSydliav8n7C6D8yrW4QUbfwIIjFWqxrVJ3hvI3v2t3oAUDQhW
SAlQVwjTsn4iZXohsuMaeRTPs6fOZFTDFFz6MRRVd20r53m0TB9Smmfhr7rz2e2X
L+1s1CIsC9D8JSaT
-----END CERTIFICATE-----
