Certificate:
    Data:
        Version: 3 (0x2)
        Serial Number: 2 (0x2)
    Signature Algorithm: sha256WithRSAEncryption
        Issuer: C=UK, ST=Hampshire, L=Southampton, O=logic-ex, OU=none, CN=logic-ex CA/name=EasyRSA/emailAddress=stephen@butterfill.com
        Validity
            Not Before: Nov 21 13:07:15 2015 GMT
            Not After : Nov 18 13:07:15 2025 GMT
        Subject: C=UK, ST=Hampshire, L=Southampton, O=logic-ex, OU=none, CN=logic-w-nyc/name=EasyRSA/emailAddress=stephen@butterfill.com
        Subject Public Key Info:
            Public Key Algorithm: rsaEncryption
                Public-Key: (2048 bit)
                Modulus:
                    00:ce:b7:ed:48:1d:cf:b7:01:fd:23:fc:af:43:e7:
                    4e:06:75:73:d1:c3:6e:94:fa:66:30:aa:28:fe:b4:
                    5e:c8:f0:89:82:2f:14:4e:13:2b:a5:cb:b5:ea:03:
                    08:5f:9a:b4:5b:cc:de:3a:94:65:c9:1f:9d:df:9d:
                    af:c6:29:c4:63:2b:01:86:de:d0:94:25:fa:61:76:
                    53:93:9f:73:e1:1b:0f:91:03:2c:39:e7:6e:9b:c8:
                    6b:cd:8f:44:63:c9:d9:84:c4:68:c1:e6:16:2b:16:
                    62:0a:c7:56:a0:e5:72:00:c9:06:b5:f4:b2:68:24:
                    62:e5:c7:86:a8:7d:24:5f:30:78:96:29:ac:c6:0c:
                    88:66:a7:bc:fa:1a:21:18:03:fb:e2:f4:2d:75:80:
                    a1:86:9d:58:83:d2:ee:68:b3:48:c8:bd:13:a1:d9:
                    2f:64:a4:fd:b1:7d:df:8c:44:79:fa:c1:76:1f:50:
                    43:20:2c:ba:b6:fa:19:84:28:96:6d:7e:dd:b9:29:
                    ae:cc:9c:05:be:57:13:e3:61:39:d2:06:72:9e:3e:
                    b8:a9:92:c4:90:39:7a:44:d7:20:32:70:96:c7:11:
                    02:3d:df:7e:d0:19:43:ca:0d:77:68:e4:82:eb:7e:
                    03:87:58:7b:86:51:06:4d:38:77:bc:53:ee:11:03:
                    86:ff
                Exponent: 65537 (0x10001)
        X509v3 extensions:
            X509v3 Basic Constraints: 
                CA:FALSE
            Netscape Comment: 
                Easy-RSA Generated Certificate
            X509v3 Subject Key Identifier: 
                F7:73:6E:36:C7:9E:0D:2B:0A:3B:F2:A3:F8:59:7F:23:9F:FB:9D:B5
            X509v3 Authority Key Identifier: 
                keyid:AF:AE:3A:6E:08:20:81:98:19:31:02:05:01:8D:1B:B7:D7:21:39:01
                DirName:/C=UK/ST=Hampshire/L=Southampton/O=logic-ex/OU=none/CN=logic-ex CA/name=EasyRSA/emailAddress=stephen@butterfill.com
                serial:B2:91:60:12:6D:BA:E7:A8

            X509v3 Extended Key Usage: 
                TLS Web Client Authentication
            X509v3 Key Usage: 
                Digital Signature
            X509v3 Subject Alternative Name: 
                DNS:logic-w-nyc
    Signature Algorithm: sha256WithRSAEncryption
         85:fa:1d:6f:90:0a:8a:fe:a7:84:e7:10:ef:e2:a7:26:4c:94:
         b4:9f:be:7f:3f:f7:27:d4:33:04:a9:fe:22:dd:5a:62:b4:fd:
         15:69:64:2a:a8:2e:b9:bd:d5:85:b2:a8:5f:49:8c:aa:f5:ff:
         48:3c:71:d0:55:ec:bc:2e:9c:c4:95:91:3c:2d:9b:28:6e:25:
         20:41:df:71:da:c2:a8:f7:61:fd:a5:86:d7:cd:66:e6:61:e5:
         3d:09:16:f2:6f:9e:fc:39:90:aa:03:51:21:8f:d5:74:1d:48:
         37:e6:ce:67:b3:4a:be:8f:7f:81:9b:32:ec:27:ec:93:3e:e4:
         6c:91:37:64:fb:21:06:dd:4f:df:c7:2f:3f:0e:5e:40:68:44:
         7a:99:49:f9:e6:bf:72:56:1b:31:20:32:6c:79:d4:5b:5d:b9:
         11:9a:3d:ad:74:c5:e8:a7:5f:34:83:00:5e:98:88:90:11:31:
         84:65:d6:22:2f:1c:19:c0:8e:83:a9:9c:05:0e:34:51:a8:b0:
         41:4f:59:fc:0d:71:47:74:b0:82:b1:dc:8f:97:5e:0e:a1:0b:
         07:38:e4:28:0d:72:44:ae:d4:24:f3:26:ef:b8:6f:32:f5:db:
         0f:36:ca:d9:e8:a5:d7:99:2f:86:6d:b4:4d:97:4f:54:56:65:
         64:21:d5:98
-----BEGIN CERTIFICATE-----
MIIFRjCCBC6gAwIBAgIBAjANBgkqhkiG9w0BAQsFADCBqDELMAkGA1UEBhMCVUsx
EjAQBgNVBAgTCUhhbXBzaGlyZTEUMBIGA1UEBxMLU291dGhhbXB0b24xETAPBgNV
BAoTCGxvZ2ljLWV4MQ0wCwYDVQQLEwRub25lMRQwEgYDVQQDEwtsb2dpYy1leCBD
QTEQMA4GA1UEKRMHRWFzeVJTQTElMCMGCSqGSIb3DQEJARYWc3RlcGhlbkBidXR0
ZXJmaWxsLmNvbTAeFw0xNTExMjExMzA3MTVaFw0yNTExMTgxMzA3MTVaMIGoMQsw
CQYDVQQGEwJVSzESMBAGA1UECBMJSGFtcHNoaXJlMRQwEgYDVQQHEwtTb3V0aGFt
cHRvbjERMA8GA1UEChMIbG9naWMtZXgxDTALBgNVBAsTBG5vbmUxFDASBgNVBAMT
C2xvZ2ljLXctbnljMRAwDgYDVQQpEwdFYXN5UlNBMSUwIwYJKoZIhvcNAQkBFhZz
dGVwaGVuQGJ1dHRlcmZpbGwuY29tMIIBIjANBgkqhkiG9w0BAQEFAAOCAQ8AMIIB
CgKCAQEAzrftSB3PtwH9I/yvQ+dOBnVz0cNulPpmMKoo/rReyPCJgi8UThMrpcu1
6gMIX5q0W8zeOpRlyR+d352vxinEYysBht7QlCX6YXZTk59z4RsPkQMsOedum8hr
zY9EY8nZhMRoweYWKxZiCsdWoOVyAMkGtfSyaCRi5ceGqH0kXzB4limsxgyIZqe8
+hohGAP74vQtdYChhp1Yg9LuaLNIyL0TodkvZKT9sX3fjER5+sF2H1BDICy6tvoZ
hCiWbX7duSmuzJwFvlcT42E50gZynj64qZLEkDl6RNcgMnCWxxECPd9+0BlDyg13
aOSC634Dh1h7hlEGTTh3vFPuEQOG/wIDAQABo4IBdzCCAXMwCQYDVR0TBAIwADAt
BglghkgBhvhCAQ0EIBYeRWFzeS1SU0EgR2VuZXJhdGVkIENlcnRpZmljYXRlMB0G
A1UdDgQWBBT3c242x54NKwo78qP4WX8jn/udtTCB3QYDVR0jBIHVMIHSgBSvrjpu
CCCBmBkxAgUBjRu31yE5AaGBrqSBqzCBqDELMAkGA1UEBhMCVUsxEjAQBgNVBAgT
CUhhbXBzaGlyZTEUMBIGA1UEBxMLU291dGhhbXB0b24xETAPBgNVBAoTCGxvZ2lj
LWV4MQ0wCwYDVQQLEwRub25lMRQwEgYDVQQDEwtsb2dpYy1leCBDQTEQMA4GA1UE
KRMHRWFzeVJTQTElMCMGCSqGSIb3DQEJARYWc3RlcGhlbkBidXR0ZXJmaWxsLmNv
bYIJALKRYBJtuueoMBMGA1UdJQQMMAoGCCsGAQUFBwMCMAsGA1UdDwQEAwIHgDAW
BgNVHREEDzANggtsb2dpYy13LW55YzANBgkqhkiG9w0BAQsFAAOCAQEAhfodb5AK
iv6nhOcQ7+KnJkyUtJ++fz/3J9QzBKn+It1aYrT9FWlkKqguub3VhbKoX0mMqvX/
SDxx0FXsvC6cxJWRPC2bKG4lIEHfcdrCqPdh/aWG181m5mHlPQkW8m+e/DmQqgNR
IY/VdB1IN+bOZ7NKvo9/gZsy7Cfskz7kbJE3ZPshBt1P38cvPw5eQGhEeplJ+ea/
clYbMSAybHnUW125EZo9rXTF6KdfNIMAXpiIkBExhGXWIi8cGcCOg6mcBQ40Uaiw
QU9Z/A1xR3SwgrHcj5deDqELBzjkKA1yRK7UJPMm77hvMvXbDzbK2eil15kvhm20
TZdPVFZlZCHVmA==
-----END CERTIFICATE-----
